; Function Attrs: mustprogress noinline uwtable
define noundef ptr @_ZN6google8protobuf8internal9ArenaImpl36AllocateAlignedAndAddCleanupFallbackEmPFvPvE(ptr noundef nonnull align 8 dereferenceable(40) %0, i64 noundef %1, ptr noundef %2) local_unnamed_addr #14 align 2 personality ptr @__gxx_personality_v0 {
  %4 = tail call noundef nonnull align 64 dereferenceable(64) ptr @llvm.threadlocal.address.p0(ptr align 64 @_ZN6google8protobuf8internal9ArenaImpl13thread_cache_E)
  %5 = tail call noundef ptr @_ZN6google8protobuf8internal9ArenaImpl22GetSerialArenaFallbackEPv(ptr noundef nonnull align 8 dereferenceable(40) %0, ptr noundef nonnull %4)
  %6 = getelementptr inbounds nuw i8, ptr %5, i64 48
  %7 = load ptr, ptr %6, align 8, !tbaa !50
  %8 = getelementptr inbounds nuw i8, ptr %5, i64 40
  %9 = load ptr, ptr %8, align 8, !tbaa !49
  %10 = ptrtoint ptr %7 to i64
  %11 = ptrtoint ptr %9 to i64
  %12 = sub i64 %10, %11
  %.not.i.i = icmp ugt i64 %1, %12
  br i1 %.not.i.i, label %13, label %15, !prof !39

13:                                               ; preds = %3
  %14 = tail call noundef ptr @_ZN6google8protobuf8internal11SerialArena23AllocateAlignedFallbackEm(ptr noundef nonnull align 8 dereferenceable(72) %5, i64 noundef %1)
  br label %_ZN6google8protobuf8internal11SerialArena15AllocateAlignedEm.exit.i

15:                                               ; preds = %3
  %16 = getelementptr inbounds nuw i8, ptr %9, i64 %1
  store ptr %16, ptr %8, align 8, !tbaa !49
  br label %_ZN6google8protobuf8internal11SerialArena15AllocateAlignedEm.exit.i

_ZN6google8protobuf8internal11SerialArena15AllocateAlignedEm.exit.i: ; preds = %15, %13
  %.0.i.i = phi ptr [ %14, %13 ], [ %9, %15 ]
  %17 = getelementptr inbounds nuw i8, ptr %5, i64 56
  %18 = load ptr, ptr %17, align 8, !tbaa !54
  %19 = getelementptr inbounds nuw i8, ptr %5, i64 64
  %20 = load ptr, ptr %19, align 8, !tbaa !69
  %21 = icmp eq ptr %18, %20
  br i1 %21, label %22, label %23, !prof !39

22:                                               ; preds = %_ZN6google8protobuf8internal11SerialArena15AllocateAlignedEm.exit.i
  tail call void @_ZN6google8protobuf8internal11SerialArena18AddCleanupFallbackEPvPFvS3_E(ptr noundef nonnull align 8 dereferenceable(72) %5, ptr noundef %.0.i.i, ptr noundef %2)
  br label %_ZN6google8protobuf8internal11SerialArena28AllocateAlignedAndAddCleanupEmPFvPvE.exit

23:                                               ; preds = %_ZN6google8protobuf8internal11SerialArena15AllocateAlignedEm.exit.i
  store ptr %.0.i.i, ptr %18, align 8, !tbaa !59
  %24 = getelementptr inbounds nuw i8, ptr %18, i64 8
  store ptr %2, ptr %24, align 8, !tbaa !57
  %25 = getelementptr inbounds nuw i8, ptr %18, i64 16
  store ptr %25, ptr %17, align 8, !tbaa !54
  br label %_ZN6google8protobuf8internal11SerialArena28AllocateAlignedAndAddCleanupEmPFvPvE.exit

_ZN6google8protobuf8internal11SerialArena28AllocateAlignedAndAddCleanupEmPFvPvE.exit: ; preds = %22, %23
  ret ptr %.0.i.i
}